; Function Attrs: mustprogress uwtable
define i64 @_ZN2cv6detail15SphericalWarper4warpERKNS_11_InputArrayES4_S4_iiRKNS_12_OutputArrayE(ptr noundef nonnull align 8 dereferenceable(168) %0, ptr noundef nonnull align 8 dereferenceable(24) %1, ptr noundef nonnull align 8 dereferenceable(24) %2, ptr noundef nonnull align 8 dereferenceable(24) %3, i32 noundef %4, i32 noundef %5, ptr noundef nonnull align 8 dereferenceable(24) %6) unnamed_addr #3 align 2 personality ptr @__gxx_personality_v0 {
  %8 = alloca %"class.cv::UMat", align 8
  %9 = alloca %"class.cv::UMat", align 8
  %10 = alloca %"class.cv::_OutputArray", align 8
  %11 = alloca %"class.cv::_OutputArray", align 8
  %12 = alloca %"class.cv::_InputArray", align 8
  %13 = alloca %"class.cv::_InputArray", align 8
  %14 = alloca %"class.cv::Scalar_", align 8
  call void @llvm.lifetime.start.p0(i64 80, ptr nonnull %8) #22
  call void @_ZN2cv4UMatC1ENS_14UMatUsageFlagsE(ptr noundef nonnull align 8 dereferenceable(80) %8, i32 noundef 0) #22
  call void @llvm.lifetime.start.p0(i64 80, ptr nonnull %9) #22
  call void @_ZN2cv4UMatC1ENS_14UMatUsageFlagsE(ptr noundef nonnull align 8 dereferenceable(80) %9, i32 noundef 0) #22
  %15 = invoke i64 @_ZNK2cv11_InputArray4sizeEi(ptr noundef nonnull align 8 dereferenceable(24) %1, i32 noundef -1)
          to label %16 unwind label %40

16:                                               ; preds = %7
  call void @llvm.lifetime.start.p0(i64 24, ptr nonnull %10) #22
  %17 = getelementptr inbounds nuw i8, ptr %10, i64 8
  %18 = getelementptr inbounds nuw i8, ptr %10, i64 16
  store i64 0, ptr %18, align 8
  store i32 34209792, ptr %10, align 8, !tbaa !205
  store ptr %8, ptr %17, align 8, !tbaa !160
  call void @llvm.lifetime.start.p0(i64 24, ptr nonnull %11) #22
  %19 = getelementptr inbounds nuw i8, ptr %11, i64 8
  %20 = getelementptr inbounds nuw i8, ptr %11, i64 16
  store i64 0, ptr %20, align 8
  store i32 34209792, ptr %11, align 8, !tbaa !205
  store ptr %9, ptr %19, align 8, !tbaa !160
  %21 = load ptr, ptr %0, align 8, !tbaa !14
  %22 = getelementptr inbounds nuw i8, ptr %21, i64 32
  %23 = load ptr, ptr %22, align 8
  %24 = invoke { i64, i64 } %23(ptr noundef nonnull align 8 dereferenceable(168) %0, i64 %15, ptr noundef nonnull align 8 dereferenceable(24) %2, ptr noundef nonnull align 8 dereferenceable(24) %3, ptr noundef nonnull align 8 dereferenceable(24) %10, ptr noundef nonnull align 8 dereferenceable(24) %11)
          to label %25 unwind label %42

25:                                               ; preds = %16
  call void @llvm.lifetime.end.p0(i64 24, ptr nonnull %11) #22
  call void @llvm.lifetime.end.p0(i64 24, ptr nonnull %10) #22
  %26 = invoke noundef i32 @_ZNK2cv11_InputArray4typeEi(ptr noundef nonnull align 8 dereferenceable(24) %1, i32 noundef -1)
          to label %27 unwind label %40

27:                                               ; preds = %25
  %28 = extractvalue { i64, i64 } %24, 1
  %.sroa.5.8.extract.trunc = trunc i64 %28 to i32
  %.sroa.5.12.extract.shift = lshr i64 %28, 32
  %.sroa.5.12.extract.trunc = trunc nuw i64 %.sroa.5.12.extract.shift to i32
  %29 = add nsw i32 %.sroa.5.8.extract.trunc, 1
  %30 = add nsw i32 %.sroa.5.12.extract.trunc, 1
  invoke void @_ZNK2cv12_OutputArray6createEiiiibNS0_9DepthMaskE(ptr noundef nonnull align 8 dereferenceable(24) %6, i32 noundef %30, i32 noundef %29, i32 noundef %26, i32 noundef -1, i1 noundef zeroext false, i32 noundef 0)
          to label %31 unwind label %40

31:                                               ; preds = %27
  call void @llvm.lifetime.start.p0(i64 24, ptr nonnull %12) #22
  %32 = getelementptr inbounds nuw i8, ptr %12, i64 16
  store i32 0, ptr %32, align 8, !tbaa !203
  %33 = getelementptr inbounds nuw i8, ptr %12, i64 20
  store i32 0, ptr %33, align 4, !tbaa !204
  store i32 17432576, ptr %12, align 8, !tbaa !205
  %34 = getelementptr inbounds nuw i8, ptr %12, i64 8
  store ptr %8, ptr %34, align 8, !tbaa !160
  call void @llvm.lifetime.start.p0(i64 24, ptr nonnull %13) #22
  %35 = getelementptr inbounds nuw i8, ptr %13, i64 16
  store i32 0, ptr %35, align 8, !tbaa !203
  %36 = getelementptr inbounds nuw i8, ptr %13, i64 20
  store i32 0, ptr %36, align 4, !tbaa !204
  store i32 17432576, ptr %13, align 8, !tbaa !205
  %37 = getelementptr inbounds nuw i8, ptr %13, i64 8
  store ptr %9, ptr %37, align 8, !tbaa !160
  call void @llvm.lifetime.start.p0(i64 32, ptr nonnull %14) #22
  call void @llvm.memset.p0.i64(ptr noundef nonnull align 8 dereferenceable(32) %14, i8 0, i64 32, i1 false)
  invoke void @_ZN2cv5remapERKNS_11_InputArrayERKNS_12_OutputArrayES2_S2_iiRKNS_7Scalar_IdEE(ptr noundef nonnull align 8 dereferenceable(24) %1, ptr noundef nonnull align 8 dereferenceable(24) %6, ptr noundef nonnull align 8 dereferenceable(24) %12, ptr noundef nonnull align 8 dereferenceable(24) %13, i32 noundef %4, i32 noundef %5, ptr noundef nonnull align 8 dereferenceable(32) %14)
          to label %38 unwind label %44

38:                                               ; preds = %31
  %39 = extractvalue { i64, i64 } %24, 0
  call void @llvm.lifetime.end.p0(i64 32, ptr nonnull %14) #22
  call void @llvm.lifetime.end.p0(i64 24, ptr nonnull %13) #22
  call void @llvm.lifetime.end.p0(i64 24, ptr nonnull %12) #22
  call void @_ZN2cv4UMatD1Ev(ptr noundef nonnull align 8 dereferenceable(80) %9) #22
  call void @llvm.lifetime.end.p0(i64 80, ptr nonnull %9) #22
  call void @_ZN2cv4UMatD1Ev(ptr noundef nonnull align 8 dereferenceable(80) %8) #22
  call void @llvm.lifetime.end.p0(i64 80, ptr nonnull %8) #22
  ret i64 %39

40:                                               ; preds = %27, %25, %7
  %41 = landingpad { ptr, i32 }
          cleanup
  br label %46

42:                                               ; preds = %16
  %43 = landingpad { ptr, i32 }
          cleanup
  call void @llvm.lifetime.end.p0(i64 24, ptr nonnull %11) #22
  call void @llvm.lifetime.end.p0(i64 24, ptr nonnull %10) #22
  br label %46

44:                                               ; preds = %31
  %45 = landingpad { ptr, i32 }
          cleanup
  call void @llvm.lifetime.end.p0(i64 32, ptr nonnull %14) #22
  call void @llvm.lifetime.end.p0(i64 24, ptr nonnull %13) #22
  call void @llvm.lifetime.end.p0(i64 24, ptr nonnull %12) #22
  br label %46

46:                                               ; preds = %44, %42, %40
  %.pn22 = phi { ptr, i32 } [ %41, %40 ], [ %45, %44 ], [ %43, %42 ]
  call void @_ZN2cv4UMatD1Ev(ptr noundef nonnull align 8 dereferenceable(80) %9) #22
  call void @llvm.lifetime.end.p0(i64 80, ptr nonnull %9) #22
  call void @_ZN2cv4UMatD1Ev(ptr noundef nonnull align 8 dereferenceable(80) %8) #22
  call void @llvm.lifetime.end.p0(i64 80, ptr nonnull %8) #22
  resume { ptr, i32 } %.pn22
}